; Function Attrs: mustprogress uwtable
define hidden noundef nonnull align 8 dereferenceable(288) ptr @_ZN4perf10Regression8instanceEv() local_unnamed_addr #5 align 2 personality ptr @__gxx_personality_v0 {
  %1 = load atomic i8, ptr @_ZGVZN4perf10Regression8instanceEvE6single acquire, align 8
  %2 = icmp eq i8 %1, 0
  br i1 %2, label %3, label %8, !prof !18

3:                                                ; preds = %0
  %4 = tail call i32 @__cxa_guard_acquire(ptr nonnull @_ZGVZN4perf10Regression8instanceEvE6single) #39
  %.not = icmp eq i32 %4, 0
  br i1 %.not, label %8, label %5

5:                                                ; preds = %3
  invoke void @_ZN4perf10RegressionC2Ev(ptr noundef nonnull align 8 dereferenceable(288) @_ZZN4perf10Regression8instanceEvE6single)
          to label %6 unwind label %9

6:                                                ; preds = %5
  %7 = tail call i32 @__cxa_atexit(ptr nonnull @_ZN4perf10RegressionD2Ev, ptr nonnull @_ZZN4perf10Regression8instanceEvE6single, ptr nonnull @__dso_handle) #39
  tail call void @__cxa_guard_release(ptr nonnull @_ZGVZN4perf10Regression8instanceEvE6single) #39
  br label %8

8:                                                ; preds = %6, %3, %0
  ret ptr @_ZZN4perf10Regression8instanceEvE6single

9:                                                ; preds = %5
  %10 = landingpad { ptr, i32 }
          cleanup
  tail call void @__cxa_guard_abort(ptr nonnull @_ZGVZN4perf10Regression8instanceEvE6single) #39
  resume { ptr, i32 } %10
}